; Function Attrs: mustprogress uwtable
define dso_local range(i32 0, 2) i32 @stbi_is_16_bit_from_memory(ptr noundef %0, i32 noundef %1) local_unnamed_addr #4 {
  %3 = alloca %struct.stbi__png, align 8
  %4 = alloca %struct.stbi__context, align 8
  call void @llvm.lifetime.start.p0(i64 224, ptr nonnull %4) #35
  %5 = getelementptr inbounds nuw i8, ptr %4, i64 16
  store ptr null, ptr %5, align 8, !tbaa !22
  %6 = getelementptr inbounds nuw i8, ptr %4, i64 48
  store i32 0, ptr %6, align 8, !tbaa !18
  %7 = getelementptr inbounds nuw i8, ptr %4, i64 184
  store i32 0, ptr %7, align 8, !tbaa !19
  %8 = getelementptr inbounds nuw i8, ptr %4, i64 208
  store ptr %0, ptr %8, align 8, !tbaa !20
  %9 = getelementptr inbounds nuw i8, ptr %4, i64 192
  store ptr %0, ptr %9, align 8, !tbaa !21
  %10 = sext i32 %1 to i64
  %11 = getelementptr inbounds i8, ptr %0, i64 %10
  %12 = getelementptr inbounds nuw i8, ptr %4, i64 216
  store ptr %11, ptr %12, align 8, !tbaa !25
  %13 = getelementptr inbounds nuw i8, ptr %4, i64 200
  store ptr %11, ptr %13, align 8, !tbaa !24
  call void @llvm.lifetime.start.p0(i64 40, ptr nonnull %3) #35
  store ptr %4, ptr %3, align 8, !tbaa !37
  %14 = call fastcc noundef i32 @_ZL20stbi__parse_png_fileP9stbi__pngii(ptr noundef nonnull %3, i32 noundef 2, i32 noundef 0)
  %.not.i.i.i = icmp ne i32 %14, 0
  %15 = getelementptr inbounds nuw i8, ptr %3, i64 32
  %16 = load i32, ptr %15, align 8
  %.not1.i.i = icmp eq i32 %16, 16
  %or.cond.i.i = select i1 %.not.i.i.i, i1 %.not1.i.i, i1 false
  br i1 %or.cond.i.i, label %_ZL14stbi__png_is16P13stbi__context.exit.i, label %17

_ZL14stbi__png_is16P13stbi__context.exit.i:       ; preds = %2
  call void @llvm.lifetime.end.p0(i64 40, ptr nonnull %3) #35
  br label %_ZL16stbi__is_16_mainP13stbi__context.exit

17:                                               ; preds = %2
  %18 = load ptr, ptr %3, align 8, !tbaa !37
  %19 = getelementptr inbounds nuw i8, ptr %18, i64 208
  %20 = load ptr, ptr %19, align 8, !tbaa !20
  %21 = getelementptr inbounds nuw i8, ptr %18, i64 192
  store ptr %20, ptr %21, align 8, !tbaa !21
  %22 = getelementptr inbounds nuw i8, ptr %18, i64 216
  %23 = load ptr, ptr %22, align 8, !tbaa !25
  %24 = getelementptr inbounds nuw i8, ptr %18, i64 200
  store ptr %23, ptr %24, align 8, !tbaa !24
  call void @llvm.lifetime.end.p0(i64 40, ptr nonnull %3) #35
  %25 = call fastcc noundef i32 @_ZL14stbi__pnm_infoP13stbi__contextPiS1_S1_(ptr noundef nonnull %4, ptr noundef null, ptr noundef null, ptr noundef null)
  %.not.i = icmp eq i32 %25, 16
  %..i = zext i1 %.not.i to i32
  br label %_ZL16stbi__is_16_mainP13stbi__context.exit

_ZL16stbi__is_16_mainP13stbi__context.exit:       ; preds = %_ZL14stbi__png_is16P13stbi__context.exit.i, %17
  %.0.i = phi i32 [ 1, %_ZL14stbi__png_is16P13stbi__context.exit.i ], [ %..i, %17 ]
  call void @llvm.lifetime.end.p0(i64 224, ptr nonnull %4) #35
  ret i32 %.0.i
}